target datalayout = "e-m:e-p270:32:32-p271:32:32-p272:64:64-i64:64-i128:128-f80:128-n8:16:32:64-S128"
target triple = "x86_64-pc-linux-gnu"

%struct.zskiplistNode = type { ptr, double, ptr, [0 x %struct.zskiplistLevel] }
%struct.zskiplistLevel = type { ptr, i64 }
%struct.zskiplist = type { ptr, ptr, i64, i32 }

; Function Attrs: nounwind uwtable
define dso_local i64 @zslGetRank(ptr noundef %0, double noundef %1, ptr noundef %2) #0 {
  %4 = alloca i64, align 8
  %5 = alloca ptr, align 8
  %6 = alloca double, align 8
  %7 = alloca ptr, align 8
  %8 = alloca ptr, align 8
  %9 = alloca i64, align 8
  %10 = alloca i32, align 4
  %11 = alloca i32, align 4
  store ptr %0, ptr %5, align 8, !tbaa !16
  store double %1, ptr %6, align 8, !tbaa !9
  store ptr %2, ptr %7, align 8, !tbaa !11
  call void @llvm.lifetime.start.p0(i64 8, ptr %8) #12
  call void @llvm.lifetime.start.p0(i64 8, ptr %9) #12
  store i64 0, ptr %9, align 8, !tbaa !31
  call void @llvm.lifetime.start.p0(i64 4, ptr %10) #12
  %12 = load ptr, ptr %5, align 8, !tbaa !16
  %13 = getelementptr inbounds nuw %struct.zskiplist, ptr %12, i32 0, i32 0
  %14 = load ptr, ptr %13, align 8, !tbaa !22
  store ptr %14, ptr %8, align 8, !tbaa !14
  %15 = load ptr, ptr %5, align 8, !tbaa !16
  %16 = getelementptr inbounds nuw %struct.zskiplist, ptr %15, i32 0, i32 3
  %17 = load i32, ptr %16, align 8, !tbaa !18
  %18 = sub nsw i32 %17, 1
  store i32 %18, ptr %10, align 4, !tbaa !5
  br label %19

19:                                               ; preds = %113, %3
  %20 = load i32, ptr %10, align 4, !tbaa !5
  %21 = icmp sge i32 %20, 0
  br i1 %21, label %22, label %116

22:                                               ; preds = %19
  br label %23

23:                                               ; preds = %75, %22
  %24 = load ptr, ptr %8, align 8, !tbaa !14
  %25 = getelementptr inbounds nuw %struct.zskiplistNode, ptr %24, i32 0, i32 3
  %26 = load i32, ptr %10, align 4, !tbaa !5
  %27 = sext i32 %26 to i64
  %28 = getelementptr inbounds [0 x %struct.zskiplistLevel], ptr %25, i64 0, i64 %27
  %29 = getelementptr inbounds nuw %struct.zskiplistLevel, ptr %28, i32 0, i32 0
  %30 = load ptr, ptr %29, align 8, !tbaa !23
  %31 = icmp ne ptr %30, null
  br i1 %31, label %32, label %73

32:                                               ; preds = %23
  %33 = load ptr, ptr %8, align 8, !tbaa !14
  %34 = getelementptr inbounds nuw %struct.zskiplistNode, ptr %33, i32 0, i32 3
  %35 = load i32, ptr %10, align 4, !tbaa !5
  %36 = sext i32 %35 to i64
  %37 = getelementptr inbounds [0 x %struct.zskiplistLevel], ptr %34, i64 0, i64 %36
  %38 = getelementptr inbounds nuw %struct.zskiplistLevel, ptr %37, i32 0, i32 0
  %39 = load ptr, ptr %38, align 8, !tbaa !23
  %40 = getelementptr inbounds nuw %struct.zskiplistNode, ptr %39, i32 0, i32 1
  %41 = load double, ptr %40, align 8, !tbaa !9
  %42 = load double, ptr %6, align 8, !tbaa !9
  %43 = fcmp olt double %41, %42
  br i1 %43, label %71, label %44

44:                                               ; preds = %32
  %45 = load ptr, ptr %8, align 8, !tbaa !14
  %46 = getelementptr inbounds nuw %struct.zskiplistNode, ptr %45, i32 0, i32 3
  %47 = load i32, ptr %10, align 4, !tbaa !5
  %48 = sext i32 %47 to i64
  %49 = getelementptr inbounds [0 x %struct.zskiplistLevel], ptr %46, i64 0, i64 %48
  %50 = getelementptr inbounds nuw %struct.zskiplistLevel, ptr %49, i32 0, i32 0
  %51 = load ptr, ptr %50, align 8, !tbaa !23
  %52 = getelementptr inbounds nuw %struct.zskiplistNode, ptr %51, i32 0, i32 1
  %53 = load double, ptr %52, align 8, !tbaa !9
  %54 = load double, ptr %6, align 8, !tbaa !9
  %55 = fcmp oeq double %53, %54
  br i1 %55, label %56, label %69

56:                                               ; preds = %44
  %57 = load ptr, ptr %8, align 8, !tbaa !14
  %58 = getelementptr inbounds nuw %struct.zskiplistNode, ptr %57, i32 0, i32 3
  %59 = load i32, ptr %10, align 4, !tbaa !5
  %60 = sext i32 %59 to i64
  %61 = getelementptr inbounds [0 x %struct.zskiplistLevel], ptr %58, i64 0, i64 %60
  %62 = getelementptr inbounds nuw %struct.zskiplistLevel, ptr %61, i32 0, i32 0
  %63 = load ptr, ptr %62, align 8, !tbaa !23
  %64 = getelementptr inbounds nuw %struct.zskiplistNode, ptr %63, i32 0, i32 0
  %65 = load ptr, ptr %64, align 8, !tbaa !11
  %66 = load ptr, ptr %7, align 8, !tbaa !11
  %67 = call i32 @sdscmp(ptr noundef %65, ptr noundef %66)
  %68 = icmp sle i32 %67, 0
  br label %69

69:                                               ; preds = %56, %44
  %70 = phi i1 [ false, %44 ], [ %68, %56 ]
  br label %71

71:                                               ; preds = %69, %32
  %72 = phi i1 [ true, %32 ], [ %70, %69 ]
  br label %73

73:                                               ; preds = %71, %23
  %74 = phi i1 [ false, %23 ], [ %72, %71 ]
  br i1 %74, label %75, label %92

75:                                               ; preds = %73
  %76 = load ptr, ptr %8, align 8, !tbaa !14
  %77 = getelementptr inbounds nuw %struct.zskiplistNode, ptr %76, i32 0, i32 3
  %78 = load i32, ptr %10, align 4, !tbaa !5
  %79 = sext i32 %78 to i64
  %80 = getelementptr inbounds [0 x %struct.zskiplistLevel], ptr %77, i64 0, i64 %79
  %81 = getelementptr inbounds nuw %struct.zskiplistLevel, ptr %80, i32 0, i32 1
  %82 = load i64, ptr %81, align 8, !tbaa !25
  %83 = load i64, ptr %9, align 8, !tbaa !31
  %84 = add i64 %83, %82
  store i64 %84, ptr %9, align 8, !tbaa !31
  %85 = load ptr, ptr %8, align 8, !tbaa !14
  %86 = getelementptr inbounds nuw %struct.zskiplistNode, ptr %85, i32 0, i32 3
  %87 = load i32, ptr %10, align 4, !tbaa !5
  %88 = sext i32 %87 to i64
  %89 = getelementptr inbounds [0 x %struct.zskiplistLevel], ptr %86, i64 0, i64 %88
  %90 = getelementptr inbounds nuw %struct.zskiplistLevel, ptr %89, i32 0, i32 0
  %91 = load ptr, ptr %90, align 8, !tbaa !23
  store ptr %91, ptr %8, align 8, !tbaa !14
  br label %23, !llvm.loop !76

92:                                               ; preds = %73
  %93 = load ptr, ptr %8, align 8, !tbaa !14
  %94 = getelementptr inbounds nuw %struct.zskiplistNode, ptr %93, i32 0, i32 0
  %95 = load ptr, ptr %94, align 8, !tbaa !11
  %96 = icmp ne ptr %95, null
  br i1 %96, label %97, label %112

97:                                               ; preds = %92
  %98 = load ptr, ptr %8, align 8, !tbaa !14
  %99 = getelementptr inbounds nuw %struct.zskiplistNode, ptr %98, i32 0, i32 1
  %100 = load double, ptr %99, align 8, !tbaa !9
  %101 = load double, ptr %6, align 8, !tbaa !9
  %102 = fcmp oeq double %100, %101
  br i1 %102, label %103, label %112

103:                                              ; preds = %97
  %104 = load ptr, ptr %8, align 8, !tbaa !14
  %105 = getelementptr inbounds nuw %struct.zskiplistNode, ptr %104, i32 0, i32 0
  %106 = load ptr, ptr %105, align 8, !tbaa !11
  %107 = load ptr, ptr %7, align 8, !tbaa !11
  %108 = call i32 @sdscmp(ptr noundef %106, ptr noundef %107)
  %109 = icmp eq i32 %108, 0
  br i1 %109, label %110, label %112

110:                                              ; preds = %103
  %111 = load i64, ptr %9, align 8, !tbaa !31
  store i64 %111, ptr %4, align 8
  store i32 1, ptr %11, align 4
  br label %117

112:                                              ; preds = %103, %97, %92
  br label %113

113:                                              ; preds = %112
  %114 = load i32, ptr %10, align 4, !tbaa !5
  %115 = add nsw i32 %114, -1
  store i32 %115, ptr %10, align 4, !tbaa !5
  br label %19, !llvm.loop !77

116:                                              ; preds = %19
  store i64 0, ptr %4, align 8
  store i32 1, ptr %11, align 4
  br label %117

117:                                              ; preds = %116, %110
  call void @llvm.lifetime.end.p0(i64 4, ptr %10) #12
  call void @llvm.lifetime.end.p0(i64 8, ptr %9) #12
  call void @llvm.lifetime.end.p0(i64 8, ptr %8) #12
  %118 = load i64, ptr %4, align 8
  ret i64 %118
}