; Function Attrs: nounwind uwtable
define dso_local i64 @zslGetRank(ptr noundef readonly captures(none) %0, double noundef %1, ptr noundef %2) local_unnamed_addr #0 {
  %4 = getelementptr inbounds nuw i8, ptr %0, i64 24
  %5 = load i32, ptr %4, align 8, !tbaa !12
  %6 = icmp sgt i32 %5, 0
  br i1 %6, label %.preheader.preheader, label %._crit_edge

.preheader.preheader:                             ; preds = %3
  %7 = load ptr, ptr %0, align 8, !tbaa !18
  %8 = zext nneg i32 %5 to i64
  br label %.preheader

.preheader:                                       ; preds = %.preheader.preheader, %38
  %indvars.iv = phi i64 [ %8, %.preheader.preheader ], [ %indvars.iv.next, %38 ]
  %.02849 = phi i64 [ 0, %.preheader.preheader ], [ %.1.lcssa, %38 ]
  %.02948 = phi ptr [ %7, %.preheader.preheader ], [ %.130.lcssa, %38 ]
  %indvars.iv.next = add nsw i64 %indvars.iv, -1
  %9 = getelementptr inbounds nuw i8, ptr %.02948, i64 24
  %10 = getelementptr inbounds [0 x %struct.zskiplistLevel], ptr %9, i64 0, i64 %indvars.iv.next
  %11 = load ptr, ptr %10, align 8, !tbaa !20
  %.not37 = icmp eq ptr %11, null
  br i1 %.not37, label %.critedge, label %.lr.ph

.lr.ph:                                           ; preds = %.preheader, %.critedge2
  %12 = phi ptr [ %29, %.critedge2 ], [ %11, %.preheader ]
  %13 = phi ptr [ %28, %.critedge2 ], [ %10, %.preheader ]
  %.139 = phi i64 [ %26, %.critedge2 ], [ %.02849, %.preheader ]
  %.13038 = phi ptr [ %23, %.critedge2 ], [ %.02948, %.preheader ]
  %14 = getelementptr inbounds nuw i8, ptr %12, i64 8
  %15 = load double, ptr %14, align 8, !tbaa !5
  %16 = fcmp olt double %15, %1
  br i1 %16, label %.critedge2, label %17

17:                                               ; preds = %.lr.ph
  %18 = fcmp oeq double %15, %1
  br i1 %18, label %19, label %.critedge

19:                                               ; preds = %17
  %20 = load ptr, ptr %12, align 8, !tbaa !9
  %21 = tail call i32 @sdscmp(ptr noundef %20, ptr noundef %2) #18
  %22 = icmp slt i32 %21, 1
  br i1 %22, label %..critedge2_crit_edge, label %.critedge

..critedge2_crit_edge:                            ; preds = %19
  %.pre = load ptr, ptr %13, align 8, !tbaa !20
  br label %.critedge2

.critedge2:                                       ; preds = %..critedge2_crit_edge, %.lr.ph
  %23 = phi ptr [ %.pre, %..critedge2_crit_edge ], [ %12, %.lr.ph ]
  %24 = getelementptr inbounds nuw i8, ptr %13, i64 8
  %25 = load i64, ptr %24, align 8, !tbaa !27
  %26 = add i64 %25, %.139
  %27 = getelementptr inbounds nuw i8, ptr %23, i64 24
  %28 = getelementptr inbounds [0 x %struct.zskiplistLevel], ptr %27, i64 0, i64 %indvars.iv.next
  %29 = load ptr, ptr %28, align 8, !tbaa !20
  %.not = icmp eq ptr %29, null
  br i1 %.not, label %.critedge, label %.lr.ph, !llvm.loop !73

.critedge:                                        ; preds = %19, %17, %.critedge2, %.preheader
  %.130.lcssa = phi ptr [ %.02948, %.preheader ], [ %23, %.critedge2 ], [ %.13038, %17 ], [ %.13038, %19 ]
  %.1.lcssa = phi i64 [ %.02849, %.preheader ], [ %26, %.critedge2 ], [ %.139, %17 ], [ %.139, %19 ]
  %30 = load ptr, ptr %.130.lcssa, align 8, !tbaa !9
  %.not36 = icmp eq ptr %30, null
  br i1 %.not36, label %38, label %31

31:                                               ; preds = %.critedge
  %32 = getelementptr inbounds nuw i8, ptr %.130.lcssa, i64 8
  %33 = load double, ptr %32, align 8, !tbaa !5
  %34 = fcmp oeq double %33, %1
  br i1 %34, label %35, label %38

35:                                               ; preds = %31
  %36 = tail call i32 @sdscmp(ptr noundef nonnull %30, ptr noundef %2) #18
  %37 = icmp eq i32 %36, 0
  br i1 %37, label %._crit_edge, label %38

38:                                               ; preds = %.critedge, %31, %35
  %39 = icmp sgt i64 %indvars.iv, 1
  br i1 %39, label %.preheader, label %._crit_edge, !llvm.loop !74

._crit_edge:                                      ; preds = %35, %38, %3
  %.031 = phi i64 [ 0, %3 ], [ 0, %38 ], [ %.1.lcssa, %35 ]
  ret i64 %.031
}